; Function Attrs: nounwind uwtable
define dso_local void @RegisterExprContextCallback(ptr noundef captures(none) %0, ptr noundef %1, i64 noundef %2) local_unnamed_addr #0 {
  %4 = getelementptr inbounds nuw i8, ptr %0, i64 32
  %5 = load ptr, ptr %4, align 8
  %6 = tail call ptr @MemoryContextAlloc(ptr noundef %5, i64 noundef 24) #12
  %7 = getelementptr inbounds nuw i8, ptr %6, i64 8
  store ptr %1, ptr %7, align 8
  %8 = getelementptr inbounds nuw i8, ptr %6, i64 16
  store i64 %2, ptr %8, align 8
  %9 = getelementptr inbounds nuw i8, ptr %0, i64 136
  %10 = load ptr, ptr %9, align 8
  store ptr %10, ptr %6, align 8
  store ptr %6, ptr %9, align 8
  ret void
}